target datalayout = "e-m:e-p270:32:32-p271:32:32-p272:64:64-i64:64-i128:128-f80:128-n8:16:32:64-S128"
target triple = "x86_64-pc-linux-gnu"

%struct.mbedtls_mpi = type { ptr, i16, i16 }

; Function Attrs: nounwind uwtable
define internal i32 @ecp_mod_p448(ptr noundef %0) #0 {
  %2 = alloca i32, align 4
  %3 = alloca ptr, align 8
  %4 = alloca i32, align 4
  %5 = alloca i64, align 8
  %6 = alloca %struct.mbedtls_mpi, align 8
  %7 = alloca %struct.mbedtls_mpi, align 8
  %8 = alloca [8 x i64], align 16
  %9 = alloca [7 x i64], align 16
  %10 = alloca i32, align 4
  store ptr %0, ptr %3, align 8, !tbaa !19
  call void @llvm.lifetime.start.p0(i64 4, ptr %4) #6
  store i32 -110, ptr %4, align 4, !tbaa !8
  call void @llvm.lifetime.start.p0(i64 8, ptr %5) #6
  call void @llvm.lifetime.start.p0(i64 16, ptr %6) #6
  call void @llvm.lifetime.start.p0(i64 16, ptr %7) #6
  call void @llvm.lifetime.start.p0(i64 64, ptr %8) #6
  call void @llvm.lifetime.start.p0(i64 56, ptr %9) #6
  %11 = load ptr, ptr %3, align 8, !tbaa !19
  %12 = getelementptr inbounds nuw %struct.mbedtls_mpi, ptr %11, i32 0, i32 2
  %13 = load i16, ptr %12, align 2, !tbaa !24
  %14 = zext i16 %13 to i64
  %15 = icmp ule i64 %14, 7
  br i1 %15, label %16, label %17

16:                                               ; preds = %1
  store i32 0, ptr %2, align 4
  store i32 1, ptr %10, align 4
  br label %132

17:                                               ; preds = %1
  %18 = getelementptr inbounds nuw %struct.mbedtls_mpi, ptr %6, i32 0, i32 1
  store i16 1, ptr %18, align 8, !tbaa !37
  %19 = load ptr, ptr %3, align 8, !tbaa !19
  %20 = getelementptr inbounds nuw %struct.mbedtls_mpi, ptr %19, i32 0, i32 2
  %21 = load i16, ptr %20, align 2, !tbaa !24
  %22 = zext i16 %21 to i64
  %23 = sub i64 %22, 7
  %24 = trunc i64 %23 to i16
  %25 = getelementptr inbounds nuw %struct.mbedtls_mpi, ptr %6, i32 0, i32 2
  store i16 %24, ptr %25, align 2, !tbaa !24
  %26 = getelementptr inbounds nuw %struct.mbedtls_mpi, ptr %6, i32 0, i32 2
  %27 = load i16, ptr %26, align 2, !tbaa !24
  %28 = zext i16 %27 to i64
  %29 = icmp ugt i64 %28, 7
  br i1 %29, label %30, label %31

30:                                               ; preds = %17
  store i32 -20352, ptr %2, align 4
  store i32 1, ptr %10, align 4
  br label %132

31:                                               ; preds = %17
  %32 = getelementptr inbounds [8 x i64], ptr %8, i64 0, i64 0
  %33 = getelementptr inbounds nuw %struct.mbedtls_mpi, ptr %6, i32 0, i32 0
  store ptr %32, ptr %33, align 8, !tbaa !22
  %34 = getelementptr inbounds [8 x i64], ptr %8, i64 0, i64 0
  call void @llvm.memset.p0.i64(ptr align 16 %34, i8 0, i64 64, i1 false)
  %35 = getelementptr inbounds [8 x i64], ptr %8, i64 0, i64 0
  %36 = load ptr, ptr %3, align 8, !tbaa !19
  %37 = getelementptr inbounds nuw %struct.mbedtls_mpi, ptr %36, i32 0, i32 0
  %38 = load ptr, ptr %37, align 8, !tbaa !22
  %39 = getelementptr inbounds nuw i64, ptr %38, i64 7
  %40 = getelementptr inbounds nuw %struct.mbedtls_mpi, ptr %6, i32 0, i32 2
  %41 = load i16, ptr %40, align 2, !tbaa !24
  %42 = zext i16 %41 to i64
  %43 = mul i64 %42, 8
  call void @llvm.memcpy.p0.p0.i64(ptr align 16 %35, ptr align 8 %39, i64 %43, i1 false)
  store i64 7, ptr %5, align 8, !tbaa !21
  br label %44

44:                                               ; preds = %57, %31
  %45 = load i64, ptr %5, align 8, !tbaa !21
  %46 = load ptr, ptr %3, align 8, !tbaa !19
  %47 = getelementptr inbounds nuw %struct.mbedtls_mpi, ptr %46, i32 0, i32 2
  %48 = load i16, ptr %47, align 2, !tbaa !24
  %49 = zext i16 %48 to i64
  %50 = icmp ult i64 %45, %49
  br i1 %50, label %51, label %60

51:                                               ; preds = %44
  %52 = load ptr, ptr %3, align 8, !tbaa !19
  %53 = getelementptr inbounds nuw %struct.mbedtls_mpi, ptr %52, i32 0, i32 0
  %54 = load ptr, ptr %53, align 8, !tbaa !22
  %55 = load i64, ptr %5, align 8, !tbaa !21
  %56 = getelementptr inbounds nuw i64, ptr %54, i64 %55
  store i64 0, ptr %56, align 8, !tbaa !21
  br label %57

57:                                               ; preds = %51
  %58 = load i64, ptr %5, align 8, !tbaa !21
  %59 = add i64 %58, 1
  store i64 %59, ptr %5, align 8, !tbaa !21
  br label %44, !llvm.loop !39

60:                                               ; preds = %44
  br label %61

61:                                               ; preds = %60
  %62 = load ptr, ptr %3, align 8, !tbaa !19
  %63 = load ptr, ptr %3, align 8, !tbaa !19
  %64 = call i32 @mbedtls_mpi_add_mpi(ptr noundef %62, ptr noundef %63, ptr noundef %6)
  store i32 %64, ptr %4, align 4, !tbaa !8
  %65 = icmp ne i32 %64, 0
  br i1 %65, label %66, label %67

66:                                               ; preds = %61
  br label %130

67:                                               ; preds = %61
  br label %68

68:                                               ; preds = %67
  br label %69

69:                                               ; preds = %68
  call void @llvm.memcpy.p0.p0.i64(ptr align 8 %7, ptr align 8 %6, i64 16, i1 false), !tbaa.struct !40
  %70 = getelementptr inbounds [7 x i64], ptr %9, i64 0, i64 0
  %71 = getelementptr inbounds nuw %struct.mbedtls_mpi, ptr %7, i32 0, i32 0
  store ptr %70, ptr %71, align 8, !tbaa !22
  %72 = getelementptr inbounds [7 x i64], ptr %9, i64 0, i64 0
  %73 = getelementptr inbounds [8 x i64], ptr %8, i64 0, i64 0
  call void @llvm.memcpy.p0.p0.i64(ptr align 16 %72, ptr align 16 %73, i64 56, i1 false)
  br label %74

74:                                               ; preds = %69
  %75 = call i32 @mbedtls_mpi_shift_r(ptr noundef %7, i64 noundef 224)
  store i32 %75, ptr %4, align 4, !tbaa !8
  %76 = icmp ne i32 %75, 0
  br i1 %76, label %77, label %78

77:                                               ; preds = %74
  br label %130

78:                                               ; preds = %74
  br label %79

79:                                               ; preds = %78
  br label %80

80:                                               ; preds = %79
  br label %81

81:                                               ; preds = %80
  %82 = load ptr, ptr %3, align 8, !tbaa !19
  %83 = load ptr, ptr %3, align 8, !tbaa !19
  %84 = call i32 @mbedtls_mpi_add_mpi(ptr noundef %82, ptr noundef %83, ptr noundef %7)
  store i32 %84, ptr %4, align 4, !tbaa !8
  %85 = icmp ne i32 %84, 0
  br i1 %85, label %86, label %87

86:                                               ; preds = %81
  br label %130

87:                                               ; preds = %81
  br label %88

88:                                               ; preds = %87
  br label %89

89:                                               ; preds = %88
  %90 = getelementptr inbounds nuw [8 x i64], ptr %8, i64 0, i64 3
  %91 = load i64, ptr %90, align 8, !tbaa !21
  %92 = and i64 %91, 4294967295
  store i64 %92, ptr %90, align 8, !tbaa !21
  store i64 4, ptr %5, align 8, !tbaa !21
  br label %93

93:                                               ; preds = %102, %89
  %94 = load i64, ptr %5, align 8, !tbaa !21
  %95 = getelementptr inbounds nuw %struct.mbedtls_mpi, ptr %6, i32 0, i32 2
  %96 = load i16, ptr %95, align 2, !tbaa !24
  %97 = zext i16 %96 to i64
  %98 = icmp ult i64 %94, %97
  br i1 %98, label %99, label %105

99:                                               ; preds = %93
  %100 = load i64, ptr %5, align 8, !tbaa !21
  %101 = getelementptr inbounds nuw [8 x i64], ptr %8, i64 0, i64 %100
  store i64 0, ptr %101, align 8, !tbaa !21
  br label %102

102:                                              ; preds = %99
  %103 = load i64, ptr %5, align 8, !tbaa !21
  %104 = add i64 %103, 1
  store i64 %104, ptr %5, align 8, !tbaa !21
  br label %93, !llvm.loop !42

105:                                              ; preds = %93
  br label %106

106:                                              ; preds = %105
  %107 = call i32 @mbedtls_mpi_add_mpi(ptr noundef %6, ptr noundef %6, ptr noundef %7)
  store i32 %107, ptr %4, align 4, !tbaa !8
  %108 = icmp ne i32 %107, 0
  br i1 %108, label %109, label %110

109:                                              ; preds = %106
  br label %130

110:                                              ; preds = %106
  br label %111

111:                                              ; preds = %110
  br label %112

112:                                              ; preds = %111
  %113 = getelementptr inbounds nuw %struct.mbedtls_mpi, ptr %6, i32 0, i32 2
  store i16 8, ptr %113, align 2, !tbaa !24
  br label %114

114:                                              ; preds = %112
  %115 = call i32 @mbedtls_mpi_shift_l(ptr noundef %6, i64 noundef 224)
  store i32 %115, ptr %4, align 4, !tbaa !8
  %116 = icmp ne i32 %115, 0
  br i1 %116, label %117, label %118

117:                                              ; preds = %114
  br label %130

118:                                              ; preds = %114
  br label %119

119:                                              ; preds = %118
  br label %120

120:                                              ; preds = %119
  br label %121

121:                                              ; preds = %120
  %122 = load ptr, ptr %3, align 8, !tbaa !19
  %123 = load ptr, ptr %3, align 8, !tbaa !19
  %124 = call i32 @mbedtls_mpi_add_mpi(ptr noundef %122, ptr noundef %123, ptr noundef %6)
  store i32 %124, ptr %4, align 4, !tbaa !8
  %125 = icmp ne i32 %124, 0
  br i1 %125, label %126, label %127

126:                                              ; preds = %121
  br label %130

127:                                              ; preds = %121
  br label %128

128:                                              ; preds = %127
  br label %129

129:                                              ; preds = %128
  br label %130

130:                                              ; preds = %129, %126, %117, %109, %86, %77, %66
  %131 = load i32, ptr %4, align 4, !tbaa !8
  store i32 %131, ptr %2, align 4
  store i32 1, ptr %10, align 4
  br label %132

132:                                              ; preds = %130, %30, %16
  call void @llvm.lifetime.end.p0(i64 56, ptr %9) #6
  call void @llvm.lifetime.end.p0(i64 64, ptr %8) #6
  call void @llvm.lifetime.end.p0(i64 16, ptr %7) #6
  call void @llvm.lifetime.end.p0(i64 16, ptr %6) #6
  call void @llvm.lifetime.end.p0(i64 8, ptr %5) #6
  call void @llvm.lifetime.end.p0(i64 4, ptr %4) #6
  %133 = load i32, ptr %2, align 4
  ret i32 %133
}