; Function Attrs: nounwind uwtable
define internal i32 @ecp_mod_p448(ptr noundef %0) #0 {
  %2 = alloca %struct.mbedtls_mpi, align 8
  %3 = alloca %struct.mbedtls_mpi, align 8
  %4 = alloca [8 x i64], align 16
  %5 = alloca [7 x i64], align 16
  call void @llvm.lifetime.start.p0(i64 16, ptr nonnull %2) #7
  call void @llvm.lifetime.start.p0(i64 16, ptr nonnull %3) #7
  call void @llvm.lifetime.start.p0(i64 64, ptr nonnull %4) #7
  call void @llvm.lifetime.start.p0(i64 56, ptr nonnull %5) #7
  %6 = getelementptr inbounds nuw i8, ptr %0, i64 10
  %7 = load i16, ptr %6, align 2, !tbaa !17
  %8 = icmp ult i16 %7, 8
  br i1 %8, label %40, label %9

9:                                                ; preds = %1
  %10 = getelementptr inbounds nuw i8, ptr %2, i64 8
  store i16 1, ptr %10, align 8, !tbaa !16
  %11 = add i16 %7, -7
  %12 = getelementptr inbounds nuw i8, ptr %2, i64 10
  store i16 %11, ptr %12, align 2, !tbaa !17
  %13 = icmp ugt i16 %11, 7
  br i1 %13, label %40, label %._crit_edge

._crit_edge:                                      ; preds = %9
  store ptr %4, ptr %2, align 8, !tbaa !18
  call void @llvm.memset.p0.i64(ptr noundef nonnull align 16 dereferenceable(64) %4, i8 0, i64 64, i1 false)
  %14 = load ptr, ptr %0, align 8, !tbaa !18
  %15 = getelementptr i8, ptr %14, i64 56
  %16 = shl nuw nsw i16 %11, 3
  %17 = zext nneg i16 %16 to i64
  call void @llvm.memcpy.p0.p0.i64(ptr nonnull align 16 %4, ptr nonnull align 8 %15, i64 %17, i1 false)
  %18 = shl nuw nsw i16 %7, 3
  %19 = zext nneg i16 %18 to i64
  %20 = add nsw i64 %19, -56
  call void @llvm.memset.p0.i64(ptr align 8 %15, i8 0, i64 %20, i1 false), !tbaa !24
  %21 = call i32 @mbedtls_mpi_add_mpi(ptr noundef nonnull %0, ptr noundef nonnull %0, ptr noundef nonnull %2) #7
  %.not = icmp eq i32 %21, 0
  br i1 %.not, label %22, label %40

22:                                               ; preds = %._crit_edge
  call void @llvm.memcpy.p0.p0.i64(ptr noundef nonnull align 8 dereferenceable(16) %3, ptr noundef nonnull align 8 dereferenceable(16) %2, i64 16, i1 false), !tbaa.struct !31
  store ptr %5, ptr %3, align 8, !tbaa !18
  call void @llvm.memcpy.p0.p0.i64(ptr noundef nonnull align 16 dereferenceable(56) %5, ptr noundef nonnull align 16 dereferenceable(56) %4, i64 56, i1 false)
  %23 = call i32 @mbedtls_mpi_shift_r(ptr noundef nonnull %3, i64 noundef 224) #7
  %.not25 = icmp eq i32 %23, 0
  br i1 %.not25, label %24, label %40

24:                                               ; preds = %22
  %25 = call i32 @mbedtls_mpi_add_mpi(ptr noundef nonnull %0, ptr noundef nonnull %0, ptr noundef nonnull %3) #7
  %.not26 = icmp eq i32 %25, 0
  br i1 %.not26, label %26, label %40

26:                                               ; preds = %24
  %27 = getelementptr inbounds nuw i8, ptr %4, i64 24
  %28 = load i64, ptr %27, align 8, !tbaa !24
  %29 = and i64 %28, 4294967295
  store i64 %29, ptr %27, align 8, !tbaa !24
  %30 = load i16, ptr %12, align 2, !tbaa !17
  %31 = icmp ugt i16 %30, 4
  br i1 %31, label %.lr.ph32.preheader, label %._crit_edge33

.lr.ph32.preheader:                               ; preds = %26
  %32 = zext i16 %30 to i64
  %scevgep34 = getelementptr inbounds nuw i8, ptr %4, i64 32
  %33 = shl nuw nsw i64 %32, 3
  %34 = add nsw i64 %33, -32
  call void @llvm.memset.p0.i64(ptr nonnull align 16 %scevgep34, i8 0, i64 %34, i1 false), !tbaa !24
  br label %._crit_edge33

._crit_edge33:                                    ; preds = %.lr.ph32.preheader, %26
  %35 = call i32 @mbedtls_mpi_add_mpi(ptr noundef nonnull %2, ptr noundef nonnull %2, ptr noundef nonnull %3) #7
  %.not27 = icmp eq i32 %35, 0
  br i1 %.not27, label %36, label %40

36:                                               ; preds = %._crit_edge33
  store i16 8, ptr %12, align 2, !tbaa !17
  %37 = call i32 @mbedtls_mpi_shift_l(ptr noundef nonnull %2, i64 noundef 224) #7
  %.not28 = icmp eq i32 %37, 0
  br i1 %.not28, label %38, label %40

38:                                               ; preds = %36
  %39 = call i32 @mbedtls_mpi_add_mpi(ptr noundef nonnull %0, ptr noundef nonnull %0, ptr noundef nonnull %2) #7
  br label %40

40:                                               ; preds = %._crit_edge, %22, %24, %._crit_edge33, %36, %38, %9, %1
  %.019 = phi i32 [ 0, %1 ], [ -20352, %9 ], [ %21, %._crit_edge ], [ %23, %22 ], [ %25, %24 ], [ %35, %._crit_edge33 ], [ %37, %36 ], [ %39, %38 ]
  call void @llvm.lifetime.end.p0(i64 56, ptr nonnull %5) #7
  call void @llvm.lifetime.end.p0(i64 64, ptr nonnull %4) #7
  call void @llvm.lifetime.end.p0(i64 16, ptr nonnull %3) #7
  call void @llvm.lifetime.end.p0(i64 16, ptr nonnull %2) #7
  ret i32 %.019
}